target datalayout = "e-m:e-p270:32:32-p271:32:32-p272:64:64-i64:64-i128:128-f80:128-n8:16:32:64-S128"
target triple = "x86_64-pc-linux-gnu"

%struct.ForEachState = type { ptr, i32 }
%struct.List = type { i32, i32, i32, ptr, [0 x %union.ListCell] }
%union.ListCell = type { ptr }

@.str = private unnamed_addr constant [11 x i8] c"plpgsql-18\00", align 1
@.str.9 = private unnamed_addr constant [5 x i8] c"none\00", align 1
@.str.25 = private unnamed_addr constant [4 x i8] c"all\00", align 1
@.str.26 = private unnamed_addr constant [24 x i8] c"List syntax is invalid.\00", align 1
@GUC_check_errdetail_string = external global ptr, align 8
@.str.27 = private unnamed_addr constant [19 x i8] c"shadowed_variables\00", align 1
@.str.28 = private unnamed_addr constant [14 x i8] c"too_many_rows\00", align 1
@.str.29 = private unnamed_addr constant [24 x i8] c"strict_multi_assignment\00", align 1
@.str.30 = private unnamed_addr constant [55 x i8] c"Key word \22%s\22 cannot be combined with other key words.\00", align 1
@.str.31 = private unnamed_addr constant [29 x i8] c"Unrecognized key word: \22%s\22.\00", align 1

; Function Attrs: nounwind uwtable
define internal zeroext i1 @plpgsql_extra_checks_check_hook(ptr noundef %0, ptr noundef %1, i32 noundef %2) #0 {
  %4 = alloca i1, align 1
  %5 = alloca ptr, align 8
  %6 = alloca ptr, align 8
  %7 = alloca i32, align 4
  %8 = alloca ptr, align 8
  %9 = alloca ptr, align 8
  %10 = alloca ptr, align 8
  %11 = alloca i32, align 4
  %12 = alloca ptr, align 8
  %13 = alloca i32, align 4
  %14 = alloca %struct.ForEachState, align 8
  %15 = alloca ptr, align 8
  store ptr %0, ptr %5, align 8
  store ptr %1, ptr %6, align 8
  store i32 %2, ptr %7, align 4
  call void @llvm.lifetime.start.p0(i64 8, ptr %8) #9
  call void @llvm.lifetime.start.p0(i64 8, ptr %9) #9
  call void @llvm.lifetime.start.p0(i64 8, ptr %10) #9
  call void @llvm.lifetime.start.p0(i64 4, ptr %11) #9
  store i32 0, ptr %11, align 4
  call void @llvm.lifetime.start.p0(i64 8, ptr %12) #9
  %16 = load ptr, ptr %5, align 8
  %17 = load ptr, ptr %16, align 8
  %18 = call i32 @pg_strcasecmp(ptr noundef %17, ptr noundef @.str.25)
  %19 = icmp eq i32 %18, 0
  br i1 %19, label %20, label %21

20:                                               ; preds = %3
  store i32 -1, ptr %11, align 4
  br label %131

21:                                               ; preds = %3
  %22 = load ptr, ptr %5, align 8
  %23 = load ptr, ptr %22, align 8
  %24 = call i32 @pg_strcasecmp(ptr noundef %23, ptr noundef @.str.9)
  %25 = icmp eq i32 %24, 0
  br i1 %25, label %26, label %27

26:                                               ; preds = %21
  store i32 0, ptr %11, align 4
  br label %130

27:                                               ; preds = %21
  %28 = load ptr, ptr %5, align 8
  %29 = load ptr, ptr %28, align 8
  %30 = call ptr @pstrdup(ptr noundef %29)
  store ptr %30, ptr %8, align 8
  %31 = load ptr, ptr %8, align 8
  %32 = call zeroext i1 @SplitIdentifierString(ptr noundef %31, i8 noundef signext 44, ptr noundef %9)
  br i1 %32, label %39, label %33

33:                                               ; preds = %27
  %34 = call ptr @__errno_location() #10
  %35 = load i32, ptr %34, align 4
  call void @pre_format_elog_string(i32 noundef %35, ptr noundef @.str)
  %36 = call ptr (ptr, ...) @format_elog_string(ptr noundef @.str.26)
  store ptr %36, ptr @GUC_check_errdetail_string, align 8
  %37 = load ptr, ptr %8, align 8
  call void @pfree(ptr noundef %37)
  %38 = load ptr, ptr %9, align 8
  call void @list_free(ptr noundef %38)
  store i1 false, ptr %4, align 1
  store i32 1, ptr %13, align 4
  br label %141

39:                                               ; preds = %27
  call void @llvm.lifetime.start.p0(i64 16, ptr %14) #9
  %40 = getelementptr inbounds nuw %struct.ForEachState, ptr %14, i32 0, i32 0
  %41 = load ptr, ptr %9, align 8
  store ptr %41, ptr %40, align 8
  %42 = getelementptr inbounds nuw %struct.ForEachState, ptr %14, i32 0, i32 1
  store i32 0, ptr %42, align 8
  %43 = getelementptr i8, ptr %14, i64 12
  call void @llvm.memset.p0.i64(ptr align 4 %43, i8 0, i64 4, i1 false)
  br label %44

44:                                               ; preds = %121, %39
  %45 = getelementptr inbounds nuw %struct.ForEachState, ptr %14, i32 0, i32 0
  %46 = load ptr, ptr %45, align 8
  %47 = icmp ne ptr %46, null
  br i1 %47, label %48, label %65

48:                                               ; preds = %44
  %49 = getelementptr inbounds nuw %struct.ForEachState, ptr %14, i32 0, i32 1
  %50 = load i32, ptr %49, align 8
  %51 = getelementptr inbounds nuw %struct.ForEachState, ptr %14, i32 0, i32 0
  %52 = load ptr, ptr %51, align 8
  %53 = getelementptr inbounds nuw %struct.List, ptr %52, i32 0, i32 1
  %54 = load i32, ptr %53, align 4
  %55 = icmp slt i32 %50, %54
  br i1 %55, label %56, label %65

56:                                               ; preds = %48
  %57 = getelementptr inbounds nuw %struct.ForEachState, ptr %14, i32 0, i32 0
  %58 = load ptr, ptr %57, align 8
  %59 = getelementptr inbounds nuw %struct.List, ptr %58, i32 0, i32 3
  %60 = load ptr, ptr %59, align 8
  %61 = getelementptr inbounds nuw %struct.ForEachState, ptr %14, i32 0, i32 1
  %62 = load i32, ptr %61, align 8
  %63 = sext i32 %62 to i64
  %64 = getelementptr inbounds %union.ListCell, ptr %60, i64 %63
  store ptr %64, ptr %10, align 8
  br label %66

65:                                               ; preds = %48, %44
  store ptr null, ptr %10, align 8
  br label %66

66:                                               ; preds = %65, %56
  %67 = phi i32 [ 1, %56 ], [ 0, %65 ]
  %68 = icmp ne i32 %67, 0
  br i1 %68, label %70, label %69

69:                                               ; preds = %66
  store i32 2, ptr %13, align 4
  br label %125

70:                                               ; preds = %66
  call void @llvm.lifetime.start.p0(i64 8, ptr %15) #9
  %71 = load ptr, ptr %10, align 8
  %72 = load ptr, ptr %71, align 8
  store ptr %72, ptr %15, align 8
  %73 = load ptr, ptr %15, align 8
  %74 = call i32 @pg_strcasecmp(ptr noundef %73, ptr noundef @.str.27)
  %75 = icmp eq i32 %74, 0
  br i1 %75, label %76, label %79

76:                                               ; preds = %70
  %77 = load i32, ptr %11, align 4
  %78 = or i32 %77, 2
  store i32 %78, ptr %11, align 4
  br label %117

79:                                               ; preds = %70
  %80 = load ptr, ptr %15, align 8
  %81 = call i32 @pg_strcasecmp(ptr noundef %80, ptr noundef @.str.28)
  %82 = icmp eq i32 %81, 0
  br i1 %82, label %83, label %86

83:                                               ; preds = %79
  %84 = load i32, ptr %11, align 4
  %85 = or i32 %84, 4
  store i32 %85, ptr %11, align 4
  br label %116

86:                                               ; preds = %79
  %87 = load ptr, ptr %15, align 8
  %88 = call i32 @pg_strcasecmp(ptr noundef %87, ptr noundef @.str.29)
  %89 = icmp eq i32 %88, 0
  br i1 %89, label %90, label %93

90:                                               ; preds = %86
  %91 = load i32, ptr %11, align 4
  %92 = or i32 %91, 8
  store i32 %92, ptr %11, align 4
  br label %115

93:                                               ; preds = %86
  %94 = load ptr, ptr %15, align 8
  %95 = call i32 @pg_strcasecmp(ptr noundef %94, ptr noundef @.str.25)
  %96 = icmp eq i32 %95, 0
  br i1 %96, label %101, label %97

97:                                               ; preds = %93
  %98 = load ptr, ptr %15, align 8
  %99 = call i32 @pg_strcasecmp(ptr noundef %98, ptr noundef @.str.9)
  %100 = icmp eq i32 %99, 0
  br i1 %100, label %101, label %108

101:                                              ; preds = %97, %93
  %102 = call ptr @__errno_location() #10
  %103 = load i32, ptr %102, align 4
  call void @pre_format_elog_string(i32 noundef %103, ptr noundef @.str)
  %104 = load ptr, ptr %15, align 8
  %105 = call ptr (ptr, ...) @format_elog_string(ptr noundef @.str.30, ptr noundef %104)
  store ptr %105, ptr @GUC_check_errdetail_string, align 8
  %106 = load ptr, ptr %8, align 8
  call void @pfree(ptr noundef %106)
  %107 = load ptr, ptr %9, align 8
  call void @list_free(ptr noundef %107)
  store i1 false, ptr %4, align 1
  store i32 1, ptr %13, align 4
  br label %118

108:                                              ; preds = %97
  %109 = call ptr @__errno_location() #10
  %110 = load i32, ptr %109, align 4
  call void @pre_format_elog_string(i32 noundef %110, ptr noundef @.str)
  %111 = load ptr, ptr %15, align 8
  %112 = call ptr (ptr, ...) @format_elog_string(ptr noundef @.str.31, ptr noundef %111)
  store ptr %112, ptr @GUC_check_errdetail_string, align 8
  %113 = load ptr, ptr %8, align 8
  call void @pfree(ptr noundef %113)
  %114 = load ptr, ptr %9, align 8
  call void @list_free(ptr noundef %114)
  store i1 false, ptr %4, align 1
  store i32 1, ptr %13, align 4
  br label %118

115:                                              ; preds = %90
  br label %116

116:                                              ; preds = %115, %83
  br label %117

117:                                              ; preds = %116, %76
  store i32 0, ptr %13, align 4
  br label %118

118:                                              ; preds = %117, %108, %101
  call void @llvm.lifetime.end.p0(i64 8, ptr %15) #9
  %119 = load i32, ptr %13, align 4
  switch i32 %119, label %125 [
    i32 0, label %120
  ]

120:                                              ; preds = %118
  br label %121

121:                                              ; preds = %120
  %122 = getelementptr inbounds nuw %struct.ForEachState, ptr %14, i32 0, i32 1
  %123 = load i32, ptr %122, align 8
  %124 = add i32 %123, 1
  store i32 %124, ptr %122, align 8
  br label %44, !llvm.loop !5

125:                                              ; preds = %118, %69
  call void @llvm.lifetime.end.p0(i64 16, ptr %14) #9
  %126 = load i32, ptr %13, align 4
  switch i32 %126, label %141 [
    i32 2, label %127
  ]

127:                                              ; preds = %125
  %128 = load ptr, ptr %8, align 8
  call void @pfree(ptr noundef %128)
  %129 = load ptr, ptr %9, align 8
  call void @list_free(ptr noundef %129)
  br label %130

130:                                              ; preds = %127, %26
  br label %131

131:                                              ; preds = %130, %20
  %132 = call ptr @guc_malloc(i32 noundef 15, i64 noundef 4)
  store ptr %132, ptr %12, align 8
  %133 = load ptr, ptr %12, align 8
  %134 = icmp ne ptr %133, null
  br i1 %134, label %136, label %135

135:                                              ; preds = %131
  store i1 false, ptr %4, align 1
  store i32 1, ptr %13, align 4
  br label %141

136:                                              ; preds = %131
  %137 = load i32, ptr %11, align 4
  %138 = load ptr, ptr %12, align 8
  store i32 %137, ptr %138, align 4
  %139 = load ptr, ptr %12, align 8
  %140 = load ptr, ptr %6, align 8
  store ptr %139, ptr %140, align 8
  store i1 true, ptr %4, align 1
  store i32 1, ptr %13, align 4
  br label %141

141:                                              ; preds = %136, %135, %125, %33
  call void @llvm.lifetime.end.p0(i64 8, ptr %12) #9
  call void @llvm.lifetime.end.p0(i64 4, ptr %11) #9
  call void @llvm.lifetime.end.p0(i64 8, ptr %10) #9
  call void @llvm.lifetime.end.p0(i64 8, ptr %9) #9
  call void @llvm.lifetime.end.p0(i64 8, ptr %8) #9
  %142 = load i1, ptr %4, align 1
  ret i1 %142
}