; Function Attrs: nounwind uwtable
define internal noundef zeroext i1 @plpgsql_extra_checks_check_hook(ptr noundef readonly captures(none) %0, ptr noundef writeonly captures(none) %1, i32 %2) #1 {
  %4 = alloca ptr, align 8
  call void @llvm.lifetime.start.p0(i64 8, ptr nonnull %4) #11
  %5 = load ptr, ptr %0, align 8
  %6 = tail call i32 @pg_strcasecmp(ptr noundef %5, ptr noundef nonnull @.str.25) #11
  %7 = icmp eq i32 %6, 0
  br i1 %7, label %59, label %8

8:                                                ; preds = %3
  %9 = load ptr, ptr %0, align 8
  %10 = tail call i32 @pg_strcasecmp(ptr noundef %9, ptr noundef nonnull @.str.9) #11
  %11 = icmp eq i32 %10, 0
  br i1 %11, label %59, label %12

12:                                               ; preds = %8
  %13 = load ptr, ptr %0, align 8
  %14 = tail call ptr @pstrdup(ptr noundef %13) #11
  %15 = call zeroext i1 @SplitIdentifierString(ptr noundef %14, i8 noundef signext 44, ptr noundef nonnull %4) #11
  br i1 %15, label %21, label %16

16:                                               ; preds = %12
  %17 = tail call ptr @__errno_location() #12
  %18 = load i32, ptr %17, align 4
  call void @pre_format_elog_string(i32 noundef %18, ptr noundef nonnull @.str) #11
  %19 = call ptr (ptr, ...) @format_elog_string(ptr noundef nonnull @.str.26) #11
  store ptr %19, ptr @GUC_check_errdetail_string, align 8
  call void @pfree(ptr noundef %14) #11
  %20 = load ptr, ptr %4, align 8
  call void @list_free(ptr noundef %20) #11
  br label %.thread51

21:                                               ; preds = %12
  %22 = load ptr, ptr %4, align 8
  %.not = icmp eq ptr %22, null
  br i1 %.not, label %._crit_edge57, label %.lr.ph

.lr.ph:                                           ; preds = %21
  %23 = getelementptr inbounds nuw i8, ptr %22, i64 4
  %24 = getelementptr inbounds nuw i8, ptr %22, i64 16
  %25 = load i32, ptr %23, align 4
  %26 = icmp sgt i32 %25, 0
  br i1 %26, label %.lr.ph63, label %._crit_edge57

.lr.ph63:                                         ; preds = %.lr.ph, %53
  %indvars.iv = phi i64 [ %indvars.iv.next, %53 ], [ 0, %.lr.ph ]
  %.1335562 = phi i32 [ %54, %53 ], [ 0, %.lr.ph ]
  %27 = load ptr, ptr %24, align 8
  %28 = getelementptr inbounds nuw %union.ListCell, ptr %27, i64 %indvars.iv
  %29 = load ptr, ptr %28, align 8
  %30 = call i32 @pg_strcasecmp(ptr noundef %29, ptr noundef nonnull @.str.27) #11
  %31 = icmp eq i32 %30, 0
  br i1 %31, label %53, label %32

32:                                               ; preds = %.lr.ph63
  %33 = call i32 @pg_strcasecmp(ptr noundef %29, ptr noundef nonnull @.str.28) #11
  %34 = icmp eq i32 %33, 0
  br i1 %34, label %53, label %35

35:                                               ; preds = %32
  %36 = call i32 @pg_strcasecmp(ptr noundef %29, ptr noundef nonnull @.str.29) #11
  %37 = icmp eq i32 %36, 0
  br i1 %37, label %53, label %.split

.split:                                           ; preds = %35
  %38 = call i32 @pg_strcasecmp(ptr noundef %29, ptr noundef nonnull @.str.25) #11
  %39 = icmp eq i32 %38, 0
  br i1 %39, label %43, label %40

40:                                               ; preds = %.split
  %41 = call i32 @pg_strcasecmp(ptr noundef %29, ptr noundef nonnull @.str.9) #11
  %42 = icmp eq i32 %41, 0
  br i1 %42, label %43, label %48

43:                                               ; preds = %40, %.split
  %44 = tail call ptr @__errno_location() #12
  %45 = load i32, ptr %44, align 4
  call void @pre_format_elog_string(i32 noundef %45, ptr noundef nonnull @.str) #11
  %46 = call ptr (ptr, ...) @format_elog_string(ptr noundef nonnull @.str.30, ptr noundef %29) #11
  store ptr %46, ptr @GUC_check_errdetail_string, align 8
  call void @pfree(ptr noundef %14) #11
  %47 = load ptr, ptr %4, align 8
  call void @list_free(ptr noundef %47) #11
  br label %.thread51

48:                                               ; preds = %40
  %49 = tail call ptr @__errno_location() #12
  %50 = load i32, ptr %49, align 4
  call void @pre_format_elog_string(i32 noundef %50, ptr noundef nonnull @.str) #11
  %51 = call ptr (ptr, ...) @format_elog_string(ptr noundef nonnull @.str.31, ptr noundef %29) #11
  store ptr %51, ptr @GUC_check_errdetail_string, align 8
  call void @pfree(ptr noundef %14) #11
  %52 = load ptr, ptr %4, align 8
  call void @list_free(ptr noundef %52) #11
  br label %.thread51

53:                                               ; preds = %35, %32, %.lr.ph63
  %.sink = phi i32 [ 2, %.lr.ph63 ], [ 4, %32 ], [ 8, %35 ]
  %54 = or i32 %.1335562, %.sink
  %indvars.iv.next = add nuw nsw i64 %indvars.iv, 1
  %55 = load i32, ptr %23, align 4
  %56 = sext i32 %55 to i64
  %57 = icmp slt i64 %indvars.iv.next, %56
  br i1 %57, label %.lr.ph63, label %._crit_edge57

._crit_edge57:                                    ; preds = %53, %.lr.ph, %21
  %.133.lcssa = phi i32 [ 0, %21 ], [ 0, %.lr.ph ], [ %54, %53 ]
  call void @pfree(ptr noundef %14) #11
  %58 = load ptr, ptr %4, align 8
  call void @list_free(ptr noundef %58) #11
  br label %59

59:                                               ; preds = %8, %3, %._crit_edge57
  %.032 = phi i32 [ %.133.lcssa, %._crit_edge57 ], [ -1, %3 ], [ 0, %8 ]
  %60 = call ptr @guc_malloc(i32 noundef 15, i64 noundef 4) #11
  %.not41 = icmp eq ptr %60, null
  br i1 %.not41, label %.thread51, label %61

61:                                               ; preds = %59
  store i32 %.032, ptr %60, align 4
  store ptr %60, ptr %1, align 8
  br label %.thread51

.thread51:                                        ; preds = %43, %48, %59, %61, %16
  %.0 = phi i1 [ true, %61 ], [ false, %16 ], [ false, %59 ], [ false, %48 ], [ false, %43 ]
  call void @llvm.lifetime.end.p0(i64 8, ptr nonnull %4) #11
  ret i1 %.0
}